target datalayout = "e-m:e-p270:32:32-p271:32:32-p272:64:64-i64:64-i128:128-f80:128-n8:16:32:64-S128"
target triple = "x86_64-pc-linux-gnu"

%"class.std::__cxx11::basic_string" = type { %"struct.std::__cxx11::basic_string<char>::_Alloc_hider", i64, %union.anon }
%"struct.std::__cxx11::basic_string<char>::_Alloc_hider" = type { ptr }
%union.anon = type { i64, [8 x i8] }
%struct.BuildLog = type <{ %"class.emhash8::HashMap", ptr, %"class.std::__cxx11::basic_string", i8, [7 x i8] }>
%"class.emhash8::HashMap" = type <{ ptr, ptr, [4 x i8], i32, i32, i32, i32, i32, i32, [4 x i8] }>

; Function Attrs: mustprogress uwtable
define available_externally noundef nonnull align 8 dereferenceable(32) ptr @_ZNSt7__cxx1112basic_stringIcSt11char_traitsIcESaIcEE6assignERKS4_(ptr noundef nonnull align 8 dereferenceable(32) %0, ptr noundef nonnull align 8 dereferenceable(32) %1) #2 align 2 {
  %3 = alloca ptr, align 8
  %4 = alloca ptr, align 8
  store ptr %0, ptr %3, align 8, !tbaa !16
  store ptr %1, ptr %4, align 8, !tbaa !16
  %5 = load ptr, ptr %3, align 8
  %6 = load ptr, ptr %4, align 8, !tbaa !16
  call void @_ZNSt7__cxx1112basic_stringIcSt11char_traitsIcESaIcEE9_M_assignERKS4_(ptr noundef nonnull align 8 dereferenceable(32) %5, ptr noundef nonnull align 8 dereferenceable(32) %6)
  ret ptr %5
}

; Function Attrs: mustprogress uwtable
define available_externally noundef nonnull align 8 dereferenceable(32) ptr @_ZNSt7__cxx1112basic_stringIcSt11char_traitsIcESaIcEEaSERKS4_(ptr noundef nonnull align 8 dereferenceable(32) %0, ptr noundef nonnull align 8 dereferenceable(32) %1) #2 align 2 {
  %3 = alloca ptr, align 8
  %4 = alloca ptr, align 8
  store ptr %0, ptr %3, align 8, !tbaa !16
  store ptr %1, ptr %4, align 8, !tbaa !16
  %5 = load ptr, ptr %3, align 8
  %6 = load ptr, ptr %4, align 8, !tbaa !16
  %7 = call noundef nonnull align 8 dereferenceable(32) ptr @_ZNSt7__cxx1112basic_stringIcSt11char_traitsIcESaIcEE6assignERKS4_(ptr noundef nonnull align 8 dereferenceable(32) %5, ptr noundef nonnull align 8 dereferenceable(32) %6)
  ret ptr %7
}

; Function Attrs: mustprogress uwtable
define dso_local noundef zeroext i1 @_ZN8BuildLog12OpenForWriteERKNSt7__cxx1112basic_stringIcSt11char_traitsIcESaIcEEERK12BuildLogUserPS5_(ptr noundef nonnull align 8 dereferenceable(89) %0, ptr noundef nonnull align 8 dereferenceable(32) %1, ptr noundef nonnull align 8 dereferenceable(8) %2, ptr noundef %3) #2 align 2 {
  %5 = alloca i1, align 1
  %6 = alloca ptr, align 8
  %7 = alloca ptr, align 8
  %8 = alloca ptr, align 8
  %9 = alloca ptr, align 8
  store ptr %0, ptr %6, align 8, !tbaa !28
  store ptr %1, ptr %7, align 8, !tbaa !16
  store ptr %2, ptr %8, align 8, !tbaa !46
  store ptr %3, ptr %9, align 8, !tbaa !16
  %10 = load ptr, ptr %6, align 8
  %11 = getelementptr inbounds nuw %struct.BuildLog, ptr %10, i32 0, i32 3
  %12 = load i8, ptr %11, align 8, !tbaa !39, !range !48, !noundef !49
  %13 = trunc i8 %12 to i1
  br i1 %13, label %14, label %21

14:                                               ; preds = %4
  %15 = load ptr, ptr %7, align 8, !tbaa !16
  %16 = load ptr, ptr %8, align 8, !tbaa !46
  %17 = load ptr, ptr %9, align 8, !tbaa !16
  %18 = call noundef zeroext i1 @_ZN8BuildLog9RecompactERKNSt7__cxx1112basic_stringIcSt11char_traitsIcESaIcEEERK12BuildLogUserPS5_(ptr noundef nonnull align 8 dereferenceable(89) %10, ptr noundef nonnull align 8 dereferenceable(32) %15, ptr noundef nonnull align 8 dereferenceable(8) %16, ptr noundef %17)
  br i1 %18, label %20, label %19

19:                                               ; preds = %14
  store i1 false, ptr %5, align 1
  br label %25

20:                                               ; preds = %14
  br label %21

21:                                               ; preds = %20, %4
  %22 = load ptr, ptr %7, align 8, !tbaa !16
  %23 = getelementptr inbounds nuw %struct.BuildLog, ptr %10, i32 0, i32 2
  %24 = call noundef nonnull align 8 dereferenceable(32) ptr @_ZNSt7__cxx1112basic_stringIcSt11char_traitsIcESaIcEEaSERKS4_(ptr noundef nonnull align 8 dereferenceable(32) %23, ptr noundef nonnull align 8 dereferenceable(32) %22)
  store i1 true, ptr %5, align 1
  br label %25

25:                                               ; preds = %21, %19
  %26 = load i1, ptr %5, align 1
  ret i1 %26
}