; Function Attrs: mustprogress uwtable
define dso_local noundef zeroext i1 @_ZN8BuildLog12OpenForWriteERKNSt7__cxx1112basic_stringIcSt11char_traitsIcESaIcEEERK12BuildLogUserPS5_(ptr noundef nonnull align 8 dereferenceable(89) %0, ptr noundef nonnull align 8 dereferenceable(32) %1, ptr noundef nonnull align 8 dereferenceable(8) %2, ptr noundef %3) local_unnamed_addr #2 align 2 {
  %5 = getelementptr inbounds nuw i8, ptr %0, i64 88
  %6 = load i8, ptr %5, align 8, !tbaa !35, !range !42, !noundef !43
  %7 = trunc nuw i8 %6 to i1
  br i1 %7, label %8, label %10

8:                                                ; preds = %4
  %9 = tail call noundef zeroext i1 @_ZN8BuildLog9RecompactERKNSt7__cxx1112basic_stringIcSt11char_traitsIcESaIcEEERK12BuildLogUserPS5_(ptr noundef nonnull align 8 dereferenceable(89) %0, ptr noundef nonnull align 8 dereferenceable(32) %1, ptr noundef nonnull align 8 dereferenceable(8) %2, ptr noundef %3)
  br i1 %9, label %10, label %12

10:                                               ; preds = %8, %4
  %11 = getelementptr inbounds nuw i8, ptr %0, i64 56
  tail call void @_ZNSt7__cxx1112basic_stringIcSt11char_traitsIcESaIcEE9_M_assignERKS4_(ptr noundef nonnull align 8 dereferenceable(32) %11, ptr noundef nonnull align 8 dereferenceable(32) %1)
  br label %12

12:                                               ; preds = %8, %10
  %.0 = phi i1 [ true, %10 ], [ false, %8 ]
  ret i1 %.0
}